target datalayout = "e-m:e-p270:32:32-p271:32:32-p272:64:64-i64:64-i128:128-f80:128-n8:16:32:64-S128"
target triple = "x86_64-pc-linux-gnu"

@hf_mpeg_descr_app_sig_app_type = internal global i32 0, align 4
@hf_mpeg_descr_app_sig_ait_ver = internal global i32 0, align 4

; Function Attrs: null_pointer_is_valid sspstrong uwtable
define internal void @proto_mpeg_descriptor_dissect_app_sig(ptr noundef %0, i32 noundef %1, i32 noundef %2, ptr noundef %3) #1 {
  %5 = alloca ptr, align 8
  %6 = alloca i32, align 4
  %7 = alloca i32, align 4
  %8 = alloca ptr, align 8
  %9 = alloca i32, align 4
  store ptr %0, ptr %5, align 8
  store i32 %1, ptr %6, align 4
  store i32 %2, ptr %7, align 4
  store ptr %3, ptr %8, align 8
  call void @llvm.lifetime.start.p0(i64 4, ptr %9) #4
  %10 = load i32, ptr %6, align 4
  store i32 %10, ptr %9, align 4
  br label %11

11:                                               ; preds = %17, %4
  %12 = load i32, ptr %6, align 4
  %13 = load i32, ptr %9, align 4
  %14 = sub i32 %12, %13
  %15 = load i32, ptr %7, align 4
  %16 = icmp ult i32 %14, %15
  br i1 %16, label %17, label %32

17:                                               ; preds = %11
  %18 = load ptr, ptr %8, align 8
  %19 = load i32, ptr @hf_mpeg_descr_app_sig_app_type, align 4
  %20 = load ptr, ptr %5, align 8
  %21 = load i32, ptr %6, align 4
  %22 = call ptr @proto_tree_add_item(ptr noundef %18, i32 noundef %19, ptr noundef %20, i32 noundef %21, i32 noundef 2, i32 noundef 0)
  %23 = load i32, ptr %6, align 4
  %24 = add i32 %23, 2
  store i32 %24, ptr %6, align 4
  %25 = load ptr, ptr %8, align 8
  %26 = load i32, ptr @hf_mpeg_descr_app_sig_ait_ver, align 4
  %27 = load ptr, ptr %5, align 8
  %28 = load i32, ptr %6, align 4
  %29 = call ptr @proto_tree_add_item(ptr noundef %25, i32 noundef %26, ptr noundef %27, i32 noundef %28, i32 noundef 1, i32 noundef 0)
  %30 = load i32, ptr %6, align 4
  %31 = add i32 %30, 1
  store i32 %31, ptr %6, align 4
  br label %11, !llvm.loop !26

32:                                               ; preds = %11
  call void @llvm.lifetime.end.p0(i64 4, ptr %9) #4
  ret void
}