; Function Attrs: null_pointer_is_valid sspstrong uwtable
define internal fastcc void @proto_mpeg_descriptor_dissect_app_sig(ptr noundef %0, i32 noundef %1, i32 noundef range(i32 1, 256) %2, ptr noundef %3) unnamed_addr #1 {
  br label %5

5:                                                ; preds = %4, %5
  %.011 = phi i32 [ %1, %4 ], [ %11, %5 ]
  %6 = load i32, ptr @hf_mpeg_descr_app_sig_app_type, align 4
  %7 = tail call ptr @proto_tree_add_item(ptr noundef %3, i32 noundef %6, ptr noundef %0, i32 noundef %.011, i32 noundef 2, i32 noundef 0)
  %8 = add i32 %.011, 2
  %9 = load i32, ptr @hf_mpeg_descr_app_sig_ait_ver, align 4
  %10 = tail call ptr @proto_tree_add_item(ptr noundef %3, i32 noundef %9, ptr noundef %0, i32 noundef %8, i32 noundef 1, i32 noundef 0)
  %11 = add i32 %.011, 3
  %12 = sub i32 %11, %1
  %13 = icmp ult i32 %12, %2
  br i1 %13, label %5, label %14, !llvm.loop !25

14:                                               ; preds = %5
  ret void
}